; Function Attrs: mustprogress null_pointer_is_valid sspstrong uwtable
define noundef i32 @_ZN11CaptureFile18timestampPrecisionEv(ptr noundef readonly align 8 captures(none) dereferenceable_or_null(48) %0) local_unnamed_addr #5 align 2 {
  %2 = getelementptr inbounds nuw i8, ptr %0, i64 16
  %3 = load ptr, ptr %2, align 8
  %.not.i.i = icmp eq ptr %3, null
  br i1 %.not.i.i, label %_ZNK11CaptureFile7capFileEv.exit.thread, label %4

4:                                                ; preds = %1
  %5 = getelementptr inbounds nuw i8, ptr %3, i64 8
  %6 = load i32, ptr %5, align 8
  %switch.i.i = icmp ult i32 %6, 2
  br i1 %switch.i.i, label %_ZNK11CaptureFile7capFileEv.exit.thread, label %_ZNK11CaptureFile7capFileEv.exit5

_ZNK11CaptureFile7capFileEv.exit5:                ; preds = %4
  %7 = getelementptr inbounds nuw i8, ptr %3, i64 224
  %8 = load ptr, ptr %7, align 8
  %.not1 = icmp eq ptr %8, null
  br i1 %.not1, label %_ZNK11CaptureFile7capFileEv.exit.thread, label %_ZNK11CaptureFile7capFileEv.exit9

_ZNK11CaptureFile7capFileEv.exit9:                ; preds = %_ZNK11CaptureFile7capFileEv.exit5
  %9 = tail call i32 @wtap_file_tsprec(ptr noundef nonnull %8)
  br label %_ZNK11CaptureFile7capFileEv.exit.thread

_ZNK11CaptureFile7capFileEv.exit.thread:          ; preds = %4, %1, %_ZNK11CaptureFile7capFileEv.exit5, %_ZNK11CaptureFile7capFileEv.exit9
  %.0 = phi i32 [ %9, %_ZNK11CaptureFile7capFileEv.exit9 ], [ -2, %_ZNK11CaptureFile7capFileEv.exit5 ], [ -2, %1 ], [ -2, %4 ]
  ret i32 %.0
}